target datalayout = "e-m:e-p270:32:32-p271:32:32-p272:64:64-i64:64-i128:128-f80:128-n8:16:32:64-S128"
target triple = "x86_64-pc-linux-gnu"

%"class.pbrt::RGBUnboundedSpectrum" = type { float, %"class.pbrt::RGBSigmoidPolynomial" }
%"class.pbrt::RGBSigmoidPolynomial" = type { float, float, float }
%"class.pbrt::RGB" = type { float, float, float }

@_ZN4pbrt13RGBColorSpace4sRGBE = external global ptr, align 8

; Function Attrs: mustprogress nounwind uwtable
define linkonce_odr dso_local noundef nonnull align 4 dereferenceable(12) ptr @_ZN4pbrt3RGBpLES0_(ptr noundef nonnull align 4 dereferenceable(12) %0, <2 x float> %1, float %2) #15 comdat align 2 {
  %4 = alloca %"class.pbrt::RGB", align 4
  %5 = alloca { <2 x float>, float }, align 4
  %6 = alloca ptr, align 8
  %7 = getelementptr inbounds nuw { <2 x float>, float }, ptr %5, i32 0, i32 0
  store <2 x float> %1, ptr %7, align 4
  %8 = getelementptr inbounds nuw { <2 x float>, float }, ptr %5, i32 0, i32 1
  store float %2, ptr %8, align 4
  call void @llvm.memcpy.p0.p0.i64(ptr align 4 %4, ptr align 4 %5, i64 12, i1 false)
  store ptr %0, ptr %6, align 8, !tbaa !194
  %9 = load ptr, ptr %6, align 8
  %10 = getelementptr inbounds nuw %"class.pbrt::RGB", ptr %4, i32 0, i32 0
  %11 = load float, ptr %10, align 4, !tbaa !196
  %12 = getelementptr inbounds nuw %"class.pbrt::RGB", ptr %9, i32 0, i32 0
  %13 = load float, ptr %12, align 4, !tbaa !196
  %14 = fadd float %13, %11
  store float %14, ptr %12, align 4, !tbaa !196
  %15 = getelementptr inbounds nuw %"class.pbrt::RGB", ptr %4, i32 0, i32 1
  %16 = load float, ptr %15, align 4, !tbaa !198
  %17 = getelementptr inbounds nuw %"class.pbrt::RGB", ptr %9, i32 0, i32 1
  %18 = load float, ptr %17, align 4, !tbaa !198
  %19 = fadd float %18, %16
  store float %19, ptr %17, align 4, !tbaa !198
  %20 = getelementptr inbounds nuw %"class.pbrt::RGB", ptr %4, i32 0, i32 2
  %21 = load float, ptr %20, align 4, !tbaa !199
  %22 = getelementptr inbounds nuw %"class.pbrt::RGB", ptr %9, i32 0, i32 2
  %23 = load float, ptr %22, align 4, !tbaa !199
  %24 = fadd float %23, %21
  store float %24, ptr %22, align 4, !tbaa !199
  ret ptr %9
}

; Function Attrs: mustprogress uwtable
define linkonce_odr dso_local { <2 x float>, float } @_ZNK4pbrt3RGBmlEf(ptr noundef nonnull align 4 dereferenceable(12) %0, float noundef %1) #1 comdat align 2 {
  %3 = alloca %"class.pbrt::RGB", align 4
  %4 = alloca ptr, align 8
  %5 = alloca float, align 4
  %6 = alloca { <2 x float>, float }, align 8
  store ptr %0, ptr %4, align 8, !tbaa !194
  store float %1, ptr %5, align 4, !tbaa !9
  %7 = load ptr, ptr %4, align 8
  br label %8

8:                                                ; preds = %2
  br label %9

9:                                                ; preds = %8
  %10 = load float, ptr %5, align 4, !tbaa !9
  %11 = getelementptr inbounds nuw %"class.pbrt::RGB", ptr %7, i32 0, i32 0
  %12 = load float, ptr %11, align 4, !tbaa !196
  %13 = fmul float %10, %12
  %14 = load float, ptr %5, align 4, !tbaa !9
  %15 = getelementptr inbounds nuw %"class.pbrt::RGB", ptr %7, i32 0, i32 1
  %16 = load float, ptr %15, align 4, !tbaa !198
  %17 = fmul float %14, %16
  %18 = load float, ptr %5, align 4, !tbaa !9
  %19 = getelementptr inbounds nuw %"class.pbrt::RGB", ptr %7, i32 0, i32 2
  %20 = load float, ptr %19, align 4, !tbaa !199
  %21 = fmul float %18, %20
  call void @_ZN4pbrt3RGBC2Efff(ptr noundef nonnull align 4 dereferenceable(12) %3, float noundef %13, float noundef %17, float noundef %21)
  call void @llvm.memcpy.p0.p0.i64(ptr align 8 %6, ptr align 4 %3, i64 12, i1 false)
  %22 = load { <2 x float>, float }, ptr %6, align 8
  ret { <2 x float>, float } %22
}

; Function Attrs: mustprogress uwtable
define linkonce_odr dso_local { <2 x float>, float } @_ZNK4pbrt3RGBplES0_(ptr noundef nonnull align 4 dereferenceable(12) %0, <2 x float> %1, float %2) #3 comdat align 2 {
  %4 = alloca %"class.pbrt::RGB", align 4
  %5 = alloca %"class.pbrt::RGB", align 4
  %6 = alloca { <2 x float>, float }, align 4
  %7 = alloca ptr, align 8
  %8 = alloca %"class.pbrt::RGB", align 4
  %9 = alloca %"class.pbrt::RGB", align 4
  %10 = alloca { <2 x float>, float }, align 4
  %11 = alloca { <2 x float>, float }, align 8
  %12 = getelementptr inbounds nuw { <2 x float>, float }, ptr %6, i32 0, i32 0
  store <2 x float> %1, ptr %12, align 4
  %13 = getelementptr inbounds nuw { <2 x float>, float }, ptr %6, i32 0, i32 1
  store float %2, ptr %13, align 4
  call void @llvm.memcpy.p0.p0.i64(ptr align 4 %5, ptr align 4 %6, i64 12, i1 false)
  store ptr %0, ptr %7, align 8, !tbaa !194
  %14 = load ptr, ptr %7, align 8
  call void @llvm.lifetime.start.p0(i64 12, ptr %8) #12
  call void @llvm.memcpy.p0.p0.i64(ptr align 4 %8, ptr align 4 %14, i64 12, i1 false), !tbaa.struct !19
  call void @llvm.memcpy.p0.p0.i64(ptr align 4 %9, ptr align 4 %5, i64 12, i1 false), !tbaa.struct !19
  call void @llvm.memcpy.p0.p0.i64(ptr align 4 %10, ptr align 4 %9, i64 12, i1 false)
  %15 = getelementptr inbounds nuw { <2 x float>, float }, ptr %10, i32 0, i32 0
  %16 = load <2 x float>, ptr %15, align 4
  %17 = getelementptr inbounds nuw { <2 x float>, float }, ptr %10, i32 0, i32 1
  %18 = load float, ptr %17, align 4
  %19 = call noundef nonnull align 4 dereferenceable(12) ptr @_ZN4pbrt3RGBpLES0_(ptr noundef nonnull align 4 dereferenceable(12) %8, <2 x float> %16, float %18)
  call void @llvm.memcpy.p0.p0.i64(ptr align 4 %4, ptr align 4 %19, i64 12, i1 false), !tbaa.struct !19
  call void @llvm.lifetime.end.p0(i64 12, ptr %8) #12
  call void @llvm.memcpy.p0.p0.i64(ptr align 8 %11, ptr align 4 %4, i64 12, i1 false)
  %20 = load { <2 x float>, float }, ptr %11, align 8
  ret { <2 x float>, float } %20
}

; Function Attrs: mustprogress uwtable
define linkonce_odr dso_local { <2 x float>, float } @_ZN4pbrtmlEfNS_3RGBE(float noundef %0, <2 x float> %1, float %2) #3 comdat {
  %4 = alloca %"class.pbrt::RGB", align 4
  %5 = alloca %"class.pbrt::RGB", align 4
  %6 = alloca { <2 x float>, float }, align 4
  %7 = alloca float, align 4
  %8 = alloca { <2 x float>, float }, align 8
  %9 = alloca { <2 x float>, float }, align 8
  %10 = getelementptr inbounds nuw { <2 x float>, float }, ptr %6, i32 0, i32 0
  store <2 x float> %1, ptr %10, align 4
  %11 = getelementptr inbounds nuw { <2 x float>, float }, ptr %6, i32 0, i32 1
  store float %2, ptr %11, align 4
  call void @llvm.memcpy.p0.p0.i64(ptr align 4 %5, ptr align 4 %6, i64 12, i1 false)
  store float %0, ptr %7, align 4, !tbaa !9
  %12 = load float, ptr %7, align 4, !tbaa !9
  %13 = call { <2 x float>, float } @_ZNK4pbrt3RGBmlEf(ptr noundef nonnull align 4 dereferenceable(12) %5, float noundef %12)
  store { <2 x float>, float } %13, ptr %8, align 8
  call void @llvm.memcpy.p0.p0.i64(ptr align 4 %4, ptr align 8 %8, i64 12, i1 false)
  call void @llvm.memcpy.p0.p0.i64(ptr align 8 %9, ptr align 4 %4, i64 12, i1 false)
  %14 = load { <2 x float>, float }, ptr %9, align 8
  ret { <2 x float>, float } %14
}

; Function Attrs: mustprogress nounwind uwtable
define linkonce_odr dso_local void @_ZN4pbrt3RGBC2Efff(ptr noundef nonnull align 4 dereferenceable(12) %0, float noundef %1, float noundef %2, float noundef %3) unnamed_addr #6 comdat align 2 {
  %5 = alloca ptr, align 8
  %6 = alloca float, align 4
  %7 = alloca float, align 4
  %8 = alloca float, align 4
  store ptr %0, ptr %5, align 8, !tbaa !194
  store float %1, ptr %6, align 4, !tbaa !9
  store float %2, ptr %7, align 4, !tbaa !9
  store float %3, ptr %8, align 4, !tbaa !9
  %9 = load ptr, ptr %5, align 8
  %10 = getelementptr inbounds nuw %"class.pbrt::RGB", ptr %9, i32 0, i32 0
  %11 = load float, ptr %6, align 4, !tbaa !9
  store float %11, ptr %10, align 4, !tbaa !196
  %12 = getelementptr inbounds nuw %"class.pbrt::RGB", ptr %9, i32 0, i32 1
  %13 = load float, ptr %7, align 4, !tbaa !9
  store float %13, ptr %12, align 4, !tbaa !198
  %14 = getelementptr inbounds nuw %"class.pbrt::RGB", ptr %9, i32 0, i32 2
  %15 = load float, ptr %8, align 4, !tbaa !9
  store float %15, ptr %14, align 4, !tbaa !199
  ret void
}

; Function Attrs: mustprogress uwtable
define dso_local { <2 x float>, <2 x float> } @_ZN4pbrt8HairBxDF23SigmaAFromConcentrationEff(float noundef %0, float noundef %1) #3 align 2 {
  %3 = alloca %"class.pbrt::RGBUnboundedSpectrum", align 4
  %4 = alloca float, align 4
  %5 = alloca float, align 4
  %6 = alloca %"class.pbrt::RGB", align 4
  %7 = alloca %"class.pbrt::RGB", align 4
  %8 = alloca %"class.pbrt::RGB", align 4
  %9 = alloca %"class.pbrt::RGB", align 4
  %10 = alloca %"class.pbrt::RGB", align 4
  %11 = alloca { <2 x float>, float }, align 4
  %12 = alloca { <2 x float>, float }, align 8
  %13 = alloca %"class.pbrt::RGB", align 4
  %14 = alloca %"class.pbrt::RGB", align 4
  %15 = alloca { <2 x float>, float }, align 4
  %16 = alloca { <2 x float>, float }, align 8
  %17 = alloca { <2 x float>, float }, align 4
  %18 = alloca { <2 x float>, float }, align 8
  %19 = alloca %"class.pbrt::RGB", align 4
  %20 = alloca { <2 x float>, float }, align 4
  store float %0, ptr %4, align 4, !tbaa !9
  store float %1, ptr %5, align 4, !tbaa !9
  call void @llvm.lifetime.start.p0(i64 12, ptr %6) #12
  call void @_ZN4pbrt3RGBC2Efff(ptr noundef nonnull align 4 dereferenceable(12) %6, float noundef 0x3FDAD0E560000000, float noundef 0x3FE64DD300000000, float noundef 0x3FF5EB8520000000)
  call void @llvm.lifetime.start.p0(i64 12, ptr %7) #12
  call void @_ZN4pbrt3RGBC2Efff(ptr noundef nonnull align 4 dereferenceable(12) %7, float noundef 0x3FC7EF9DC0000000, float noundef 0x3FD99999A0000000, float noundef 0x3FF0CCCCC0000000)
  call void @llvm.lifetime.start.p0(i64 12, ptr %8) #12
  call void @llvm.lifetime.start.p0(i64 12, ptr %9) #12
  %21 = load float, ptr %4, align 4, !tbaa !9
  call void @llvm.memcpy.p0.p0.i64(ptr align 4 %10, ptr align 4 %6, i64 12, i1 false), !tbaa.struct !19
  call void @llvm.memcpy.p0.p0.i64(ptr align 4 %11, ptr align 4 %10, i64 12, i1 false)
  %22 = getelementptr inbounds nuw { <2 x float>, float }, ptr %11, i32 0, i32 0
  %23 = load <2 x float>, ptr %22, align 4
  %24 = getelementptr inbounds nuw { <2 x float>, float }, ptr %11, i32 0, i32 1
  %25 = load float, ptr %24, align 4
  %26 = call { <2 x float>, float } @_ZN4pbrtmlEfNS_3RGBE(float noundef %21, <2 x float> %23, float %25)
  store { <2 x float>, float } %26, ptr %12, align 8
  call void @llvm.memcpy.p0.p0.i64(ptr align 4 %9, ptr align 8 %12, i64 12, i1 false)
  %27 = load float, ptr %5, align 4, !tbaa !9
  call void @llvm.memcpy.p0.p0.i64(ptr align 4 %14, ptr align 4 %7, i64 12, i1 false), !tbaa.struct !19
  call void @llvm.memcpy.p0.p0.i64(ptr align 4 %15, ptr align 4 %14, i64 12, i1 false)
  %28 = getelementptr inbounds nuw { <2 x float>, float }, ptr %15, i32 0, i32 0
  %29 = load <2 x float>, ptr %28, align 4
  %30 = getelementptr inbounds nuw { <2 x float>, float }, ptr %15, i32 0, i32 1
  %31 = load float, ptr %30, align 4
  %32 = call { <2 x float>, float } @_ZN4pbrtmlEfNS_3RGBE(float noundef %27, <2 x float> %29, float %31)
  store { <2 x float>, float } %32, ptr %16, align 8
  call void @llvm.memcpy.p0.p0.i64(ptr align 4 %13, ptr align 8 %16, i64 12, i1 false)
  call void @llvm.memcpy.p0.p0.i64(ptr align 4 %17, ptr align 4 %13, i64 12, i1 false)
  %33 = getelementptr inbounds nuw { <2 x float>, float }, ptr %17, i32 0, i32 0
  %34 = load <2 x float>, ptr %33, align 4
  %35 = getelementptr inbounds nuw { <2 x float>, float }, ptr %17, i32 0, i32 1
  %36 = load float, ptr %35, align 4
  %37 = call { <2 x float>, float } @_ZNK4pbrt3RGBplES0_(ptr noundef nonnull align 4 dereferenceable(12) %9, <2 x float> %34, float %36)
  store { <2 x float>, float } %37, ptr %18, align 8
  call void @llvm.memcpy.p0.p0.i64(ptr align 4 %8, ptr align 8 %18, i64 12, i1 false)
  call void @llvm.lifetime.end.p0(i64 12, ptr %9) #12
  %38 = load ptr, ptr @_ZN4pbrt13RGBColorSpace4sRGBE, align 8, !tbaa !192
  call void @llvm.memcpy.p0.p0.i64(ptr align 4 %19, ptr align 4 %8, i64 12, i1 false), !tbaa.struct !19
  call void @llvm.memcpy.p0.p0.i64(ptr align 4 %20, ptr align 4 %19, i64 12, i1 false)
  %39 = getelementptr inbounds nuw { <2 x float>, float }, ptr %20, i32 0, i32 0
  %40 = load <2 x float>, ptr %39, align 4
  %41 = getelementptr inbounds nuw { <2 x float>, float }, ptr %20, i32 0, i32 1
  %42 = load float, ptr %41, align 4
  call void @_ZN4pbrt20RGBUnboundedSpectrumC1ERKNS_13RGBColorSpaceENS_3RGBE(ptr noundef nonnull align 4 dereferenceable(16) %3, ptr noundef nonnull align 8 dereferenceable(152) %38, <2 x float> %40, float %42)
  call void @llvm.lifetime.end.p0(i64 12, ptr %8) #12
  call void @llvm.lifetime.end.p0(i64 12, ptr %7) #12
  call void @llvm.lifetime.end.p0(i64 12, ptr %6) #12
  %43 = load { <2 x float>, <2 x float> }, ptr %3, align 4
  ret { <2 x float>, <2 x float> } %43
}