; Function Attrs: mustprogress uwtable
define dso_local { <2 x float>, <2 x float> } @_ZN4pbrt8HairBxDF23SigmaAFromConcentrationEff(float noundef %0, float noundef %1) local_unnamed_addr #1 align 2 {
  %3 = alloca %"class.pbrt::RGBUnboundedSpectrum", align 8
  %4 = fmul float %0, 0x3FDAD0E560000000
  %5 = fmul float %0, 0x3FE64DD300000000
  %6 = fmul float %0, 0x3FF5EB8520000000
  %7 = fmul float %1, 0x3FC7EF9DC0000000
  %8 = fmul float %1, 0x3FD99999A0000000
  %9 = fmul float %1, 0x3FF0CCCCC0000000
  %10 = fadd float %4, %7
  %.sroa.0.0.vec.insert.i = insertelement <2 x float> poison, float %10, i64 0
  %11 = fadd float %5, %8
  %.sroa.0.4.vec.insert.i = insertelement <2 x float> %.sroa.0.0.vec.insert.i, float %11, i64 1
  %12 = fadd float %6, %9
  %13 = load ptr, ptr @_ZN4pbrt13RGBColorSpace4sRGBE, align 8, !tbaa !181
  call void @_ZN4pbrt20RGBUnboundedSpectrumC1ERKNS_13RGBColorSpaceENS_3RGBE(ptr noundef nonnull align 4 dereferenceable(16) %3, ptr noundef nonnull align 8 dereferenceable(152) %13, <2 x float> %.sroa.0.4.vec.insert.i, float %12)
  %.fca.0.load = load <2 x float>, ptr %3, align 8
  %.fca.0.insert = insertvalue { <2 x float>, <2 x float> } poison, <2 x float> %.fca.0.load, 0
  %.fca.1.gep = getelementptr inbounds nuw i8, ptr %3, i64 8
  %.fca.1.load = load <2 x float>, ptr %.fca.1.gep, align 8
  %.fca.1.insert = insertvalue { <2 x float>, <2 x float> } %.fca.0.insert, <2 x float> %.fca.1.load, 1
  ret { <2 x float>, <2 x float> } %.fca.1.insert
}